; ModuleID = 'source-C-CXX/48/122.cpp'
source_filename = "source-C-CXX/48/122.cpp"
target datalayout = "e-m:e-p270:32:32-p271:32:32-p272:64:64-i64:64-f80:128-n8:16:32:64-S128"
target triple = "x86_64-pc-linux-gnu"

%"class.std::ios_base::Init" = type { i8 }
%"class.std::basic_ostream" = type { i32 (...)**, %"class.std::basic_ios" }
%"class.std::basic_ios" = type { %"class.std::ios_base", %"class.std::basic_ostream"*, i8, i8, %"class.std::basic_streambuf"*, %"class.std::ctype"*, %"class.std::num_put"*, %"class.std::num_get"* }
%"class.std::ios_base" = type { i32 (...)**, i64, i64, i32, i32, i32, %"struct.std::ios_base::_Callback_list"*, %"struct.std::ios_base::_Words", [8 x %"struct.std::ios_base::_Words"], i32, %"struct.std::ios_base::_Words"*, %"class.std::locale" }
%"struct.std::ios_base::_Callback_list" = type { %"struct.std::ios_base::_Callback_list"*, void (i32, %"class.std::ios_base"*, i32)*, i32, i32 }
%"struct.std::ios_base::_Words" = type { i8*, i64 }
%"class.std::locale" = type { %"class.std::locale::_Impl"* }
%"class.std::locale::_Impl" = type { i32, %"class.std::locale::facet"**, i64, %"class.std::locale::facet"**, i8** }
%"class.std::locale::facet" = type <{ i32 (...)**, i32, [4 x i8] }>
%"class.std::basic_streambuf" = type { i32 (...)**, i8*, i8*, i8*, i8*, i8*, i8*, %"class.std::locale" }
%"class.std::ctype" = type <{ %"class.std::locale::facet.base", [4 x i8], %struct.__locale_struct*, i8, [7 x i8], i32*, i32*, i16*, i8, [256 x i8], [256 x i8], i8, [6 x i8] }>
%"class.std::locale::facet.base" = type <{ i32 (...)**, i32 }>
%struct.__locale_struct = type { [13 x %struct.__locale_data*], i16*, i32*, i32*, [13 x i8*] }
%struct.__locale_data = type opaque
%"class.std::num_put" = type { %"class.std::locale::facet.base", [4 x i8] }
%"class.std::num_get" = type { %"class.std::locale::facet.base", [4 x i8] }
%"class.std::basic_istream" = type { i32 (...)**, i64, %"class.std::basic_ios" }

@_ZStL8__ioinit = internal global %"class.std::ios_base::Init" zeroinitializer, align 1
@__dso_handle = external hidden global i8
@_ZSt4cout = external global %"class.std::basic_ostream", align 8
@_ZSt3cin = external global %"class.std::basic_istream", align 8
@llvm.global_ctors = appending global [1 x { i32, void ()*, i8* }] [{ i32, void ()*, i8* } { i32 65535, void ()* @_GLOBAL__sub_I_122.cpp, i8* null }]

declare void @_ZNSt8ios_base4InitC1Ev(%"class.std::ios_base::Init"* nonnull align 1 dereferenceable(1)) unnamed_addr #0

; Function Attrs: nounwind
declare void @_ZNSt8ios_base4InitD1Ev(%"class.std::ios_base::Init"* nonnull align 1 dereferenceable(1)) unnamed_addr #1

; Function Attrs: nofree nounwind
declare i32 @__cxa_atexit(void (i8*)*, i8*, i8*) local_unnamed_addr #2

; Function Attrs: mustprogress sspstrong uwtable
define dso_local void @_Z4sameiPc(i32 %0, i8* nocapture readonly %1) local_unnamed_addr #3 {
  %3 = alloca i8, align 1
  %4 = sdiv i32 %0, 2
  %5 = load i8, i8* %1, align 1, !tbaa !5
  %6 = icmp eq i8 %5, 0
  br i1 %6, label %119, label %7

7:                                                ; preds = %2
  %8 = icmp sgt i32 %0, 1
  br i1 %8, label %11, label %9

9:                                                ; preds = %7
  %10 = icmp eq i32 %0, 1
  br label %75

11:                                               ; preds = %7
  %12 = zext i32 %0 to i64
  %13 = zext i32 %4 to i64
  br label %14

14:                                               ; preds = %11, %70
  %15 = phi i64 [ 0, %11 ], [ %71, %70 ]
  %16 = add nsw i64 %15, %12
  %17 = trunc i64 %16 to i32
  br label %57

18:                                               ; preds = %57
  %19 = add nuw nsw i32 %59, 1
  %20 = icmp eq i64 %69, %13
  br i1 %20, label %48, label %57, !llvm.loop !8

21:                                               ; preds = %48
  %22 = load i8*, i8** bitcast (%"class.std::basic_ostream"* @_ZSt4cout to i8**), align 8, !tbaa !10
  %23 = getelementptr i8, i8* %22, i64 -24
  %24 = bitcast i8* %23 to i64*
  %25 = load i64, i64* %24, align 8
  %26 = add nsw i64 %25, 240
  %27 = getelementptr inbounds i8, i8* bitcast (%"class.std::basic_ostream"* @_ZSt4cout to i8*), i64 %26
  %28 = bitcast i8* %27 to %"class.std::ctype"**
  %29 = load %"class.std::ctype"*, %"class.std::ctype"** %28, align 8, !tbaa !12
  %30 = icmp eq %"class.std::ctype"* %29, null
  br i1 %30, label %97, label %31

31:                                               ; preds = %21
  %32 = getelementptr inbounds %"class.std::ctype", %"class.std::ctype"* %29, i64 0, i32 8
  %33 = load i8, i8* %32, align 8, !tbaa !16
  %34 = icmp eq i8 %33, 0
  br i1 %34, label %38, label %35

35:                                               ; preds = %31
  %36 = getelementptr inbounds %"class.std::ctype", %"class.std::ctype"* %29, i64 0, i32 9, i64 10
  %37 = load i8, i8* %36, align 1, !tbaa !5
  br label %44

38:                                               ; preds = %31
  call void @_ZNKSt5ctypeIcE13_M_widen_initEv(%"class.std::ctype"* nonnull align 8 dereferenceable(570) %29)
  %39 = bitcast %"class.std::ctype"* %29 to i8 (%"class.std::ctype"*, i8)***
  %40 = load i8 (%"class.std::ctype"*, i8)**, i8 (%"class.std::ctype"*, i8)*** %39, align 8, !tbaa !10
  %41 = getelementptr inbounds i8 (%"class.std::ctype"*, i8)*, i8 (%"class.std::ctype"*, i8)** %40, i64 6
  %42 = load i8 (%"class.std::ctype"*, i8)*, i8 (%"class.std::ctype"*, i8)** %41, align 8
  %43 = call signext i8 %42(%"class.std::ctype"* nonnull align 8 dereferenceable(570) %29, i8 signext 10)
  br label %44

44:                                               ; preds = %38, %35
  %45 = phi i8 [ %37, %35 ], [ %43, %38 ]
  %46 = call nonnull align 8 dereferenceable(8) %"class.std::basic_ostream"* @_ZNSo3putEc(%"class.std::basic_ostream"* nonnull align 8 dereferenceable(8) @_ZSt4cout, i8 signext %45)
  %47 = call nonnull align 8 dereferenceable(8) %"class.std::basic_ostream"* @_ZNSo5flushEv(%"class.std::basic_ostream"* nonnull align 8 dereferenceable(8) %46)
  br label %70

48:                                               ; preds = %18, %48
  %49 = phi i64 [ %53, %48 ], [ %15, %18 ]
  %50 = getelementptr inbounds i8, i8* %1, i64 %49
  %51 = load i8, i8* %50, align 1, !tbaa !5
  call void @llvm.lifetime.start.p0i8(i64 1, i8* nonnull %3)
  store i8 %51, i8* %3, align 1, !tbaa !5
  %52 = call nonnull align 8 dereferenceable(8) %"class.std::basic_ostream"* @_ZSt16__ostream_insertIcSt11char_traitsIcEERSt13basic_ostreamIT_T0_ES6_PKS3_l(%"class.std::basic_ostream"* nonnull align 8 dereferenceable(8) @_ZSt4cout, i8* nonnull %3, i64 1)
  call void @llvm.lifetime.end.p0i8(i64 1, i8* nonnull %3)
  %53 = add nuw i64 %49, 1
  %54 = shl i64 %53, 32
  %55 = ashr exact i64 %54, 32
  %56 = icmp slt i64 %55, %16
  br i1 %56, label %48, label %21, !llvm.loop !18

57:                                               ; preds = %14, %18
  %58 = phi i64 [ 0, %14 ], [ %69, %18 ]
  %59 = phi i32 [ 0, %14 ], [ %19, %18 ]
  %60 = add nuw nsw i64 %58, %15
  %61 = getelementptr inbounds i8, i8* %1, i64 %60
  %62 = load i8, i8* %61, align 1, !tbaa !5
  %63 = xor i32 %59, -1
  %64 = add i32 %17, %63
  %65 = sext i32 %64 to i64
  %66 = getelementptr inbounds i8, i8* %1, i64 %65
  %67 = load i8, i8* %66, align 1, !tbaa !5
  %68 = icmp eq i8 %62, %67
  %69 = add nuw nsw i64 %58, 1
  br i1 %68, label %18, label %70

70:                                               ; preds = %57, %44
  %71 = add nuw i64 %15, 1
  %72 = getelementptr inbounds i8, i8* %1, i64 %71
  %73 = load i8, i8* %72, align 1, !tbaa !5
  %74 = icmp eq i8 %73, 0
  br i1 %74, label %119, label %14, !llvm.loop !19

75:                                               ; preds = %9, %111
  %76 = phi i64 [ 0, %9 ], [ %115, %111 ]
  %77 = trunc i64 %76 to i32
  %78 = add nsw i32 %77, %0
  br i1 %10, label %79, label %87

79:                                               ; preds = %75, %79
  %80 = phi i64 [ %84, %79 ], [ %76, %75 ]
  %81 = getelementptr inbounds i8, i8* %1, i64 %80
  %82 = load i8, i8* %81, align 1, !tbaa !5
  call void @llvm.lifetime.start.p0i8(i64 1, i8* nonnull %3)
  store i8 %82, i8* %3, align 1, !tbaa !5
  %83 = call nonnull align 8 dereferenceable(8) %"class.std::basic_ostream"* @_ZSt16__ostream_insertIcSt11char_traitsIcEERSt13basic_ostreamIT_T0_ES6_PKS3_l(%"class.std::basic_ostream"* nonnull align 8 dereferenceable(8) @_ZSt4cout, i8* nonnull %3, i64 1)
  call void @llvm.lifetime.end.p0i8(i64 1, i8* nonnull %3)
  %84 = add nuw i64 %80, 1
  %85 = trunc i64 %84 to i32
  %86 = icmp sgt i32 %78, %85
  br i1 %86, label %79, label %87, !llvm.loop !18

87:                                               ; preds = %79, %75
  %88 = load i8*, i8** bitcast (%"class.std::basic_ostream"* @_ZSt4cout to i8**), align 8, !tbaa !10
  %89 = getelementptr i8, i8* %88, i64 -24
  %90 = bitcast i8* %89 to i64*
  %91 = load i64, i64* %90, align 8
  %92 = add nsw i64 %91, 240
  %93 = getelementptr inbounds i8, i8* bitcast (%"class.std::basic_ostream"* @_ZSt4cout to i8*), i64 %92
  %94 = bitcast i8* %93 to %"class.std::ctype"**
  %95 = load %"class.std::ctype"*, %"class.std::ctype"** %94, align 8, !tbaa !12
  %96 = icmp eq %"class.std::ctype"* %95, null
  br i1 %96, label %97, label %98

97:                                               ; preds = %87, %21
  call void @_ZSt16__throw_bad_castv() #9
  unreachable

98:                                               ; preds = %87
  %99 = getelementptr inbounds %"class.std::ctype", %"class.std::ctype"* %95, i64 0, i32 8
  %100 = load i8, i8* %99, align 8, !tbaa !16
  %101 = icmp eq i8 %100, 0
  br i1 %101, label %105, label %102

102:                                              ; preds = %98
  %103 = getelementptr inbounds %"class.std::ctype", %"class.std::ctype"* %95, i64 0, i32 9, i64 10
  %104 = load i8, i8* %103, align 1, !tbaa !5
  br label %111

105:                                              ; preds = %98
  call void @_ZNKSt5ctypeIcE13_M_widen_initEv(%"class.std::ctype"* nonnull align 8 dereferenceable(570) %95)
  %106 = bitcast %"class.std::ctype"* %95 to i8 (%"class.std::ctype"*, i8)***
  %107 = load i8 (%"class.std::ctype"*, i8)**, i8 (%"class.std::ctype"*, i8)*** %106, align 8, !tbaa !10
  %108 = getelementptr inbounds i8 (%"class.std::ctype"*, i8)*, i8 (%"class.std::ctype"*, i8)** %107, i64 6
  %109 = load i8 (%"class.std::ctype"*, i8)*, i8 (%"class.std::ctype"*, i8)** %108, align 8
  %110 = call signext i8 %109(%"class.std::ctype"* nonnull align 8 dereferenceable(570) %95, i8 signext 10)
  br label %111

111:                                              ; preds = %102, %105
  %112 = phi i8 [ %104, %102 ], [ %110, %105 ]
  %113 = call nonnull align 8 dereferenceable(8) %"class.std::basic_ostream"* @_ZNSo3putEc(%"class.std::basic_ostream"* nonnull align 8 dereferenceable(8) @_ZSt4cout, i8 signext %112)
  %114 = call nonnull align 8 dereferenceable(8) %"class.std::basic_ostream"* @_ZNSo5flushEv(%"class.std::basic_ostream"* nonnull align 8 dereferenceable(8) %113)
  %115 = add nuw i64 %76, 1
  %116 = getelementptr inbounds i8, i8* %1, i64 %115
  %117 = load i8, i8* %116, align 1, !tbaa !5
  %118 = icmp eq i8 %117, 0
  br i1 %118, label %119, label %75, !llvm.loop !19

119:                                              ; preds = %111, %70, %2
  ret void
}

; Function Attrs: argmemonly mustprogress nofree nosync nounwind willreturn
declare void @llvm.lifetime.start.p0i8(i64 immarg, i8* nocapture) #4

; Function Attrs: argmemonly mustprogress nofree nosync nounwind willreturn
declare void @llvm.lifetime.end.p0i8(i64 immarg, i8* nocapture) #4

; Function Attrs: mustprogress norecurse sspstrong uwtable
define dso_local i32 @main() local_unnamed_addr #5 {
  %1 = alloca [501 x i8], align 16
  %2 = getelementptr inbounds [501 x i8], [501 x i8]* %1, i64 0, i64 0
  call void @llvm.lifetime.start.p0i8(i64 501, i8* nonnull %2) #10
  call void @_ZSt17__istream_extractRSiPcl(%"class.std::basic_istream"* nonnull align 8 dereferenceable(16) @_ZSt3cin, i8* nonnull %2, i64 501)
  %3 = call i64 @strlen(i8* noundef nonnull %2) #11
  %4 = trunc i64 %3 to i32
  %5 = icmp slt i32 %4, 2
  br i1 %5, label %10, label %6

6:                                                ; preds = %0, %6
  %7 = phi i32 [ %8, %6 ], [ 2, %0 ]
  call void @_Z4sameiPc(i32 %7, i8* nonnull %2)
  %8 = add nuw i32 %7, 1
  %9 = icmp eq i32 %7, %4
  br i1 %9, label %10, label %6, !llvm.loop !20

10:                                               ; preds = %6, %0
  call void @llvm.lifetime.end.p0i8(i64 501, i8* nonnull %2) #10
  ret i32 0
}

; Function Attrs: argmemonly mustprogress nofree nounwind readonly willreturn
declare i64 @strlen(i8* nocapture) local_unnamed_addr #6

declare nonnull align 8 dereferenceable(8) %"class.std::basic_ostream"* @_ZSt16__ostream_insertIcSt11char_traitsIcEERSt13basic_ostreamIT_T0_ES6_PKS3_l(%"class.std::basic_ostream"* nonnull align 8 dereferenceable(8), i8*, i64) local_unnamed_addr #0

declare nonnull align 8 dereferenceable(8) %"class.std::basic_ostream"* @_ZNSo3putEc(%"class.std::basic_ostream"* nonnull align 8 dereferenceable(8), i8 signext) local_unnamed_addr #0

declare nonnull align 8 dereferenceable(8) %"class.std::basic_ostream"* @_ZNSo5flushEv(%"class.std::basic_ostream"* nonnull align 8 dereferenceable(8)) local_unnamed_addr #0

; Function Attrs: noreturn
declare void @_ZSt16__throw_bad_castv() local_unnamed_addr #7

declare void @_ZNKSt5ctypeIcE13_M_widen_initEv(%"class.std::ctype"* nonnull align 8 dereferenceable(570)) local_unnamed_addr #0

declare void @_ZSt17__istream_extractRSiPcl(%"class.std::basic_istream"* nonnull align 8 dereferenceable(16), i8*, i64) local_unnamed_addr #0

; Function Attrs: sspstrong uwtable
define internal void @_GLOBAL__sub_I_122.cpp() #8 section ".text.startup" {
  tail call void @_ZNSt8ios_base4InitC1Ev(%"class.std::ios_base::Init"* nonnull align 1 dereferenceable(1) @_ZStL8__ioinit)
  %1 = tail call i32 @__cxa_atexit(void (i8*)* bitcast (void (%"class.std::ios_base::Init"*)* @_ZNSt8ios_base4InitD1Ev to void (i8*)*), i8* getelementptr inbounds (%"class.std::ios_base::Init", %"class.std::ios_base::Init"* @_ZStL8__ioinit, i64 0, i32 0), i8* nonnull @__dso_handle) #10
  ret void
}


!llvm.module.flags = !{!0, !1, !2, !3}
!llvm.ident = !{!4}

!0 = !{i32 1, !"wchar_size", i32 4}
!1 = !{i32 7, !"PIC Level", i32 2}
!2 = !{i32 7, !"PIE Level", i32 2}
!3 = !{i32 7, !"uwtable", i32 1}
!4 = !{!"clang version 13.0.0"}
!5 = !{!6, !6, i64 0}
!6 = !{!"omnipotent char", !7, i64 0}
!7 = !{!"Simple C++ TBAA"}
!8 = distinct !{!8, !9}
!9 = !{!"llvm.loop.mustprogress"}
!10 = !{!11, !11, i64 0}
!11 = !{!"vtable pointer", !7, i64 0}
!12 = !{!13, !14, i64 240}
!13 = !{!"_ZTSSt9basic_iosIcSt11char_traitsIcEE", !14, i64 216, !6, i64 224, !15, i64 225, !14, i64 232, !14, i64 240, !14, i64 248, !14, i64 256}
!14 = !{!"any pointer", !6, i64 0}
!15 = !{!"bool", !6, i64 0}
!16 = !{!17, !6, i64 56}
!17 = !{!"_ZTSSt5ctypeIcE", !14, i64 16, !15, i64 24, !14, i64 32, !14, i64 40, !14, i64 48, !6, i64 56, !6, i64 57, !6, i64 313, !6, i64 569}
!18 = distinct !{!18, !9}
!19 = distinct !{!19, !9}
!20 = distinct !{!20, !9}
